; Function Attrs: mustprogress uwtable
define void @_ZN5arrow9ListArrayC2ESt10shared_ptrINS_9ArrayDataEE(ptr noundef nonnull align 8 dereferenceable(64) %this, ptr noundef nonnull %data) unnamed_addr #0 align 2 personality ptr @__gxx_personality_v0 {
entry:
  %data_.i.i.i = getelementptr inbounds i8, ptr %this, i64 8
  tail call void @llvm.memset.p0.i64(ptr noundef nonnull align 8 dereferenceable(56) %data_.i.i.i, i8 0, i64 56, i1 false)
  store ptr getelementptr inbounds ({ [5 x ptr] }, ptr @_ZTVN5arrow9ListArrayE, i64 0, i32 0, i64 2), ptr %this, align 8
  invoke void @_ZN5arrow8internal11SetListDataINS_8ListTypeEEEvPNS_22VarLengthListLikeArrayIT_EERKSt10shared_ptrINS_9ArrayDataEENS_4Type4typeE(ptr noundef nonnull %this, ptr noundef nonnull align 8 dereferenceable(16) %data, i32 noundef 25)
          to label %invoke.cont unwind label %lpad

invoke.cont:                                      ; preds = %entry
  ret void

lpad:                                             ; preds = %entry
  %0 = landingpad { ptr, i32 }
          cleanup
  tail call void @_ZN5arrow22VarLengthListLikeArrayINS_8ListTypeEED2Ev(ptr noundef nonnull align 8 dereferenceable(64) %this) #18
  resume { ptr, i32 } %0
}